; ModuleID = '20/426.c'
source_filename = "20/426.c"
target datalayout = "e-m:e-p270:32:32-p271:32:32-p272:64:64-i64:64-f80:128-n8:16:32:64-S128"
target triple = "x86_64-pc-linux-gnu"

@.str = private unnamed_addr constant [5 x i8] c"%s%s\00", align 1
@.str.1 = private unnamed_addr constant [4 x i8] c"%s\0A\00", align 1

; Function Attrs: noinline nounwind uwtable
define dso_local void @main() #0 {
  %1 = alloca i32, align 4
  %2 = alloca i32, align 4
  %3 = alloca [14 x i8], align 1
  %4 = alloca [4 x i8], align 1
  br label %5

5:                                                ; preds = %76, %0
  %6 = getelementptr inbounds [14 x i8], [14 x i8]* %3, i64 0, i64 0
  %7 = getelementptr inbounds [4 x i8], [4 x i8]* %4, i64 0, i64 0
  %8 = call i32 (i8*, ...) @__isoc99_scanf(i8* getelementptr inbounds ([5 x i8], [5 x i8]* @.str, i64 0, i64 0), i8* %6, i8* %7)
  %9 = icmp ne i32 %8, -1
  br i1 %9, label %10, label %79

10:                                               ; preds = %5
  store i32 0, i32* %2, align 4
  store i32 0, i32* %1, align 4
  br label %11

11:                                               ; preds = %33, %10
  %12 = load i32, i32* %1, align 4
  %13 = sext i32 %12 to i64
  %14 = getelementptr inbounds [14 x i8], [14 x i8]* %3, i64 0, i64 %13
  %15 = load i8, i8* %14, align 1
  %16 = sext i8 %15 to i32
  %17 = icmp ne i32 %16, 0
  br i1 %17, label %18, label %36

18:                                               ; preds = %11
  %19 = load i32, i32* %2, align 4
  %20 = sext i32 %19 to i64
  %21 = getelementptr inbounds [14 x i8], [14 x i8]* %3, i64 0, i64 %20
  %22 = load i8, i8* %21, align 1
  %23 = sext i8 %22 to i32
  %24 = load i32, i32* %1, align 4
  %25 = sext i32 %24 to i64
  %26 = getelementptr inbounds [14 x i8], [14 x i8]* %3, i64 0, i64 %25
  %27 = load i8, i8* %26, align 1
  %28 = sext i8 %27 to i32
  %29 = icmp slt i32 %23, %28
  br i1 %29, label %30, label %32

30:                                               ; preds = %18
  %31 = load i32, i32* %1, align 4
  store i32 %31, i32* %2, align 4
  br label %32

32:                                               ; preds = %30, %18
  br label %33

33:                                               ; preds = %32
  %34 = load i32, i32* %1, align 4
  %35 = add nsw i32 %34, 1
  store i32 %35, i32* %1, align 4
  br label %11

36:                                               ; preds = %11
  store i32 12, i32* %1, align 4
  br label %37

37:                                               ; preds = %51, %36
  %38 = load i32, i32* %1, align 4
  %39 = load i32, i32* %2, align 4
  %40 = add nsw i32 %39, 3
  %41 = icmp sgt i32 %38, %40
  br i1 %41, label %42, label %54

42:                                               ; preds = %37
  %43 = load i32, i32* %1, align 4
  %44 = sub nsw i32 %43, 3
  %45 = sext i32 %44 to i64
  %46 = getelementptr inbounds [14 x i8], [14 x i8]* %3, i64 0, i64 %45
  %47 = load i8, i8* %46, align 1
  %48 = load i32, i32* %1, align 4
  %49 = sext i32 %48 to i64
  %50 = getelementptr inbounds [14 x i8], [14 x i8]* %3, i64 0, i64 %49
  store i8 %47, i8* %50, align 1
  br label %51

51:                                               ; preds = %42
  %52 = load i32, i32* %1, align 4
  %53 = add nsw i32 %52, -1
  store i32 %53, i32* %1, align 4
  br label %37

54:                                               ; preds = %37
  %55 = load i32, i32* %2, align 4
  %56 = add nsw i32 %55, 1
  store i32 %56, i32* %1, align 4
  br label %57

57:                                               ; preds = %73, %54
  %58 = load i32, i32* %1, align 4
  %59 = load i32, i32* %2, align 4
  %60 = add nsw i32 %59, 4
  %61 = icmp slt i32 %58, %60
  br i1 %61, label %62, label %76

62:                                               ; preds = %57
  %63 = load i32, i32* %1, align 4
  %64 = load i32, i32* %2, align 4
  %65 = sub nsw i32 %63, %64
  %66 = sub nsw i32 %65, 1
  %67 = sext i32 %66 to i64
  %68 = getelementptr inbounds [4 x i8], [4 x i8]* %4, i64 0, i64 %67
  %69 = load i8, i8* %68, align 1
  %70 = load i32, i32* %1, align 4
  %71 = sext i32 %70 to i64
  %72 = getelementptr inbounds [14 x i8], [14 x i8]* %3, i64 0, i64 %71
  store i8 %69, i8* %72, align 1
  br label %73

73:                                               ; preds = %62
  %74 = load i32, i32* %1, align 4
  %75 = add nsw i32 %74, 1
  store i32 %75, i32* %1, align 4
  br label %57

76:                                               ; preds = %57
  %77 = getelementptr inbounds [14 x i8], [14 x i8]* %3, i64 0, i64 0
  %78 = call i32 (i8*, ...) @printf(i8* getelementptr inbounds ([4 x i8], [4 x i8]* @.str.1, i64 0, i64 0), i8* %77)
  br label %5

79:                                               ; preds = %5
  ret void
}

declare dso_local i32 @__isoc99_scanf(i8*, ...) #1

declare dso_local i32 @printf(i8*, ...) #1


!llvm.module.flags = !{!0}
!llvm.ident = !{!1}

!0 = !{i32 1, !"wchar_size", i32 4}
!1 = !{!"clang version 10.0.0-4ubuntu1 "}
